target datalayout = "e-m:e-p270:32:32-p271:32:32-p272:64:64-i64:64-i128:128-f80:128-n8:16:32:64-S128"
target triple = "x86_64-unknown-linux-gnu"

%class.mpz = type { i32, i8, ptr }
%class.svector = type { %class.vector }
%class.vector = type { ptr }
%"class.upolynomial::core_manager::factors" = type { %class.vector.0, %class.svector.1, ptr, %class.mpz, i32, i32 }
%class.vector.0 = type { ptr }
%class.svector.1 = type { %class.vector.2 }
%class.vector.2 = type { ptr }

; Function Attrs: mustprogress nounwind uwtable
define linkonce_odr hidden noundef nonnull align 4 dereferenceable(4) ptr @_ZNK6vectorIjLb0EjEixEj(ptr noundef nonnull align 8 dereferenceable(8) %this, i32 noundef %idx) #5 comdat align 2 {
entry:
  %this.addr = alloca ptr, align 8
  %idx.addr = alloca i32, align 4
  store ptr %this, ptr %this.addr, align 8
  store i32 %idx, ptr %idx.addr, align 4
  %this1 = load ptr, ptr %this.addr, align 8
  %m_data = getelementptr inbounds %class.vector.2, ptr %this1, i32 0, i32 0
  %0 = load ptr, ptr %m_data, align 8
  %1 = load i32, ptr %idx.addr, align 4
  %idxprom = zext i32 %1 to i64
  %arrayidx = getelementptr inbounds i32, ptr %0, i64 %idxprom
  ret ptr %arrayidx
}

; Function Attrs: mustprogress nounwind uwtable
define linkonce_odr hidden noundef i32 @_ZNK6vectorI3mpzLb0EjE4sizeEv(ptr noundef nonnull align 8 dereferenceable(8) %this) #5 comdat align 2 {
entry:
  %retval = alloca i32, align 4
  %this.addr = alloca ptr, align 8
  store ptr %this, ptr %this.addr, align 8
  %this1 = load ptr, ptr %this.addr, align 8
  %m_data = getelementptr inbounds %class.vector, ptr %this1, i32 0, i32 0
  %0 = load ptr, ptr %m_data, align 8
  %cmp = icmp eq ptr %0, null
  br i1 %cmp, label %if.then, label %if.end

if.then:                                          ; preds = %entry
  store i32 0, ptr %retval, align 4
  br label %return

if.end:                                           ; preds = %entry
  %m_data2 = getelementptr inbounds %class.vector, ptr %this1, i32 0, i32 0
  %1 = load ptr, ptr %m_data2, align 8
  %arrayidx = getelementptr inbounds i32, ptr %1, i64 -1
  %2 = load i32, ptr %arrayidx, align 4
  store i32 %2, ptr %retval, align 4
  br label %return

return:                                           ; preds = %if.end, %if.then
  %3 = load i32, ptr %retval, align 4
  ret i32 %3
}

; Function Attrs: mustprogress nounwind uwtable
define linkonce_odr hidden noundef nonnull align 8 dereferenceable(8) ptr @_ZNK6vectorI7svectorI3mpzjELb1EjEixEj(ptr noundef nonnull align 8 dereferenceable(8) %this, i32 noundef %idx) #5 comdat align 2 {
entry:
  %this.addr = alloca ptr, align 8
  %idx.addr = alloca i32, align 4
  store ptr %this, ptr %this.addr, align 8
  store i32 %idx, ptr %idx.addr, align 4
  %this1 = load ptr, ptr %this.addr, align 8
  %m_data = getelementptr inbounds %class.vector.0, ptr %this1, i32 0, i32 0
  %0 = load ptr, ptr %m_data, align 8
  %1 = load i32, ptr %idx.addr, align 4
  %idxprom = zext i32 %1 to i64
  %arrayidx = getelementptr inbounds %class.svector, ptr %0, i64 %idxprom
  ret ptr %arrayidx
}

; Function Attrs: mustprogress nounwind uwtable
define linkonce_odr hidden noundef i32 @_ZNK6vectorI7svectorI3mpzjELb1EjE4sizeEv(ptr noundef nonnull align 8 dereferenceable(8) %this) #5 comdat align 2 {
entry:
  %retval = alloca i32, align 4
  %this.addr = alloca ptr, align 8
  store ptr %this, ptr %this.addr, align 8
  %this1 = load ptr, ptr %this.addr, align 8
  %m_data = getelementptr inbounds %class.vector.0, ptr %this1, i32 0, i32 0
  %0 = load ptr, ptr %m_data, align 8
  %cmp = icmp eq ptr %0, null
  br i1 %cmp, label %if.then, label %if.end

if.then:                                          ; preds = %entry
  store i32 0, ptr %retval, align 4
  br label %return

if.end:                                           ; preds = %entry
  %m_data2 = getelementptr inbounds %class.vector.0, ptr %this1, i32 0, i32 0
  %1 = load ptr, ptr %m_data2, align 8
  %arrayidx = getelementptr inbounds i32, ptr %1, i64 -1
  %2 = load i32, ptr %arrayidx, align 4
  store i32 %2, ptr %retval, align 4
  br label %return

return:                                           ; preds = %if.end, %if.then
  %3 = load i32, ptr %retval, align 4
  ret i32 %3
}

; Function Attrs: mustprogress nounwind uwtable
define linkonce_odr hidden noundef i32 @_ZNK11upolynomial12core_manager7factors13total_factorsEv(ptr noundef nonnull align 8 dereferenceable(48) %this) #5 comdat align 2 {
entry:
  %this.addr = alloca ptr, align 8
  store ptr %this, ptr %this.addr, align 8
  %this1 = load ptr, ptr %this.addr, align 8
  %m_total_factors = getelementptr inbounds %"class.upolynomial::core_manager::factors", ptr %this1, i32 0, i32 4
  %0 = load i32, ptr %m_total_factors, align 8
  ret i32 %0
}

; Function Attrs: mustprogress nounwind uwtable
define linkonce_odr hidden noundef nonnull align 8 dereferenceable(16) ptr @_ZNK11upolynomial12core_manager7factors12get_constantEv(ptr noundef nonnull align 8 dereferenceable(48) %this) #5 comdat align 2 {
entry:
  %this.addr = alloca ptr, align 8
  store ptr %this, ptr %this.addr, align 8
  %this1 = load ptr, ptr %this.addr, align 8
  %m_constant = getelementptr inbounds %"class.upolynomial::core_manager::factors", ptr %this1, i32 0, i32 3
  ret ptr %m_constant
}

; Function Attrs: mustprogress uwtable
define linkonce_odr hidden noundef i32 @_ZNK11upolynomial12core_manager7factors10get_degreeEj(ptr noundef nonnull align 8 dereferenceable(48) %this, i32 noundef %i) #4 comdat align 2 {
entry:
  %this.addr = alloca ptr, align 8
  %i.addr = alloca i32, align 4
  store ptr %this, ptr %this.addr, align 8
  store i32 %i, ptr %i.addr, align 4
  %this1 = load ptr, ptr %this.addr, align 8
  %m_degrees = getelementptr inbounds %"class.upolynomial::core_manager::factors", ptr %this1, i32 0, i32 1
  %0 = load i32, ptr %i.addr, align 4
  %call = call noundef nonnull align 4 dereferenceable(4) ptr @_ZNK6vectorIjLb0EjEixEj(ptr noundef nonnull align 8 dereferenceable(8) %m_degrees, i32 noundef %0)
  %1 = load i32, ptr %call, align 4
  ret i32 %1
}

; Function Attrs: mustprogress uwtable
define hidden noundef zeroext i1 @_ZN11upolynomial21zp_factor_square_freeERNS_12core_managerERK7svectorI3mpzjERNS0_7factorsE(ptr noundef nonnull align 8 dereferenceable(272) %upm, ptr noundef nonnull align 8 dereferenceable(8) %f, ptr noundef nonnull align 8 dereferenceable(48) %factors) #4 {
entry:
  %upm.addr = alloca ptr, align 8
  %f.addr = alloca ptr, align 8
  %factors.addr = alloca ptr, align 8
  store ptr %upm, ptr %upm.addr, align 8
  store ptr %f, ptr %f.addr, align 8
  store ptr %factors, ptr %factors.addr, align 8
  %0 = load ptr, ptr %upm.addr, align 8
  %1 = load ptr, ptr %f.addr, align 8
  %2 = load ptr, ptr %factors.addr, align 8
  %call = call noundef zeroext i1 @_ZN11upolynomial31zp_factor_square_free_berlekampERNS_12core_managerERK7svectorI3mpzjERNS0_7factorsEb(ptr noundef nonnull align 8 dereferenceable(272) %0, ptr noundef nonnull align 8 dereferenceable(8) %1, ptr noundef nonnull align 8 dereferenceable(48) %2, i1 noundef zeroext false)
  ret i1 %call
}

; Function Attrs: mustprogress uwtable
define linkonce_odr hidden noundef i32 @_ZN11upolynomial12core_manager6degreeERK7svectorI3mpzjE(ptr noundef nonnull align 8 dereferenceable(272) %this, ptr noundef nonnull align 8 dereferenceable(8) %p) #4 comdat align 2 {
entry:
  %this.addr = alloca ptr, align 8
  %p.addr = alloca ptr, align 8
  %sz = alloca i32, align 4
  store ptr %this, ptr %this.addr, align 8
  store ptr %p, ptr %p.addr, align 8
  %0 = load ptr, ptr %p.addr, align 8
  %call = call noundef i32 @_ZNK6vectorI3mpzLb0EjE4sizeEv(ptr noundef nonnull align 8 dereferenceable(8) %0)
  store i32 %call, ptr %sz, align 4
  %1 = load i32, ptr %sz, align 4
  %cmp = icmp eq i32 %1, 0
  br i1 %cmp, label %cond.true, label %cond.false

cond.true:                                        ; preds = %entry
  br label %cond.end

cond.false:                                       ; preds = %entry
  %2 = load i32, ptr %sz, align 4
  %sub = sub i32 %2, 1
  br label %cond.end

cond.end:                                         ; preds = %cond.false, %cond.true
  %cond = phi i32 [ 0, %cond.true ], [ %sub, %cond.false ]
  ret i32 %cond
}

; Function Attrs: mustprogress uwtable
define linkonce_odr hidden noundef nonnull align 8 dereferenceable(8) ptr @_ZNK11upolynomial12core_manager7factorsixEj(ptr noundef nonnull align 8 dereferenceable(48) %this, i32 noundef %i) #4 comdat align 2 {
entry:
  %this.addr = alloca ptr, align 8
  %i.addr = alloca i32, align 4
  store ptr %this, ptr %this.addr, align 8
  store i32 %i, ptr %i.addr, align 4
  %this1 = load ptr, ptr %this.addr, align 8
  %m_factors = getelementptr inbounds %"class.upolynomial::core_manager::factors", ptr %this1, i32 0, i32 0
  %0 = load i32, ptr %i.addr, align 4
  %call = call noundef nonnull align 8 dereferenceable(8) ptr @_ZNK6vectorI7svectorI3mpzjELb1EjEixEj(ptr noundef nonnull align 8 dereferenceable(8) %m_factors, i32 noundef %0)
  ret ptr %call
}

; Function Attrs: mustprogress uwtable
define linkonce_odr hidden noundef i32 @_ZNK11upolynomial12core_manager7factors16distinct_factorsEv(ptr noundef nonnull align 8 dereferenceable(48) %this) #4 comdat align 2 {
entry:
  %this.addr = alloca ptr, align 8
  store ptr %this, ptr %this.addr, align 8
  %this1 = load ptr, ptr %this.addr, align 8
  %m_factors = getelementptr inbounds %"class.upolynomial::core_manager::factors", ptr %this1, i32 0, i32 0
  %call = call noundef i32 @_ZNK6vectorI7svectorI3mpzjELb1EjE4sizeEv(ptr noundef nonnull align 8 dereferenceable(8) %m_factors)
  ret i32 %call
}

; Function Attrs: mustprogress uwtable
define hidden noundef zeroext i1 @_ZN11upolynomial9zp_factorERNS_12core_managerERK7svectorI3mpzjERNS0_7factorsE(ptr noundef nonnull align 8 dereferenceable(272) %upm, ptr noundef nonnull align 8 dereferenceable(8) %f, ptr noundef nonnull align 8 dereferenceable(48) %factors) #4 personality ptr @__gxx_personality_v0 {
entry:
  %upm.addr = alloca ptr, align 8
  %f.addr = alloca ptr, align 8
  %factors.addr = alloca ptr, align 8
  %sq_free_factors = alloca %"class.upolynomial::core_manager::factors", align 8
  %exn.slot = alloca ptr, align 8
  %ehselector.slot = alloca i32, align 4
  %i = alloca i32, align 4
  %j = alloca i32, align 4
  store ptr %upm, ptr %upm.addr, align 8
  store ptr %f, ptr %f.addr, align 8
  store ptr %factors, ptr %factors.addr, align 8
  %0 = load ptr, ptr %upm.addr, align 8
  call void @_ZN11upolynomial12core_manager7factorsC1ERS0_(ptr noundef nonnull align 8 dereferenceable(48) %sq_free_factors, ptr noundef nonnull align 8 dereferenceable(272) %0)
  %1 = load ptr, ptr %upm.addr, align 8
  %2 = load ptr, ptr %f.addr, align 8
  invoke void @_ZN11upolynomial21zp_square_free_factorERNS_12core_managerERK7svectorI3mpzjERNS0_7factorsE(ptr noundef nonnull align 8 dereferenceable(272) %1, ptr noundef nonnull align 8 dereferenceable(8) %2, ptr noundef nonnull align 8 dereferenceable(48) %sq_free_factors)
          to label %invoke.cont unwind label %lpad

invoke.cont:                                      ; preds = %entry
  store i32 0, ptr %i, align 4
  br label %for.cond

for.cond:                                         ; preds = %for.inc28, %invoke.cont
  %3 = load i32, ptr %i, align 4
  %call = invoke noundef i32 @_ZNK11upolynomial12core_manager7factors16distinct_factorsEv(ptr noundef nonnull align 8 dereferenceable(48) %sq_free_factors)
          to label %invoke.cont1 unwind label %lpad

invoke.cont1:                                     ; preds = %for.cond
  %cmp = icmp ult i32 %3, %call
  br i1 %cmp, label %for.body, label %for.end30

for.body:                                         ; preds = %invoke.cont1
  %4 = load ptr, ptr %factors.addr, align 8
  %call3 = invoke noundef i32 @_ZNK11upolynomial12core_manager7factors16distinct_factorsEv(ptr noundef nonnull align 8 dereferenceable(48) %4)
          to label %invoke.cont2 unwind label %lpad

invoke.cont2:                                     ; preds = %for.body
  store i32 %call3, ptr %j, align 4
  %5 = load ptr, ptr %upm.addr, align 8
  %6 = load i32, ptr %i, align 4
  %call5 = invoke noundef nonnull align 8 dereferenceable(8) ptr @_ZNK11upolynomial12core_manager7factorsixEj(ptr noundef nonnull align 8 dereferenceable(48) %sq_free_factors, i32 noundef %6)
          to label %invoke.cont4 unwind label %lpad

invoke.cont4:                                     ; preds = %invoke.cont2
  %call7 = invoke noundef i32 @_ZN11upolynomial12core_manager6degreeERK7svectorI3mpzjE(ptr noundef nonnull align 8 dereferenceable(272) %5, ptr noundef nonnull align 8 dereferenceable(8) %call5)
          to label %invoke.cont6 unwind label %lpad

invoke.cont6:                                     ; preds = %invoke.cont4
  %cmp8 = icmp ugt i32 %call7, 1
  br i1 %cmp8, label %if.then, label %if.else

if.then:                                          ; preds = %invoke.cont6
  %7 = load ptr, ptr %upm.addr, align 8
  %8 = load i32, ptr %i, align 4
  %call10 = invoke noundef nonnull align 8 dereferenceable(8) ptr @_ZNK11upolynomial12core_manager7factorsixEj(ptr noundef nonnull align 8 dereferenceable(48) %sq_free_factors, i32 noundef %8)
          to label %invoke.cont9 unwind label %lpad

invoke.cont9:                                     ; preds = %if.then
  %9 = load ptr, ptr %factors.addr, align 8
  %call12 = invoke noundef zeroext i1 @_ZN11upolynomial21zp_factor_square_freeERNS_12core_managerERK7svectorI3mpzjERNS0_7factorsE(ptr noundef nonnull align 8 dereferenceable(272) %7, ptr noundef nonnull align 8 dereferenceable(8) %call10, ptr noundef nonnull align 8 dereferenceable(48) %9)
          to label %invoke.cont11 unwind label %lpad

invoke.cont11:                                    ; preds = %invoke.cont9
  br label %for.cond13

for.cond13:                                       ; preds = %for.inc, %invoke.cont11
  %10 = load i32, ptr %j, align 4
  %11 = load ptr, ptr %factors.addr, align 8
  %call15 = invoke noundef i32 @_ZNK11upolynomial12core_manager7factors16distinct_factorsEv(ptr noundef nonnull align 8 dereferenceable(48) %11)
          to label %invoke.cont14 unwind label %lpad

invoke.cont14:                                    ; preds = %for.cond13
  %cmp16 = icmp ult i32 %10, %call15
  br i1 %cmp16, label %for.body17, label %for.end

for.body17:                                       ; preds = %invoke.cont14
  %12 = load ptr, ptr %factors.addr, align 8
  %13 = load i32, ptr %j, align 4
  %14 = load i32, ptr %i, align 4
  %call19 = invoke noundef i32 @_ZNK11upolynomial12core_manager7factors10get_degreeEj(ptr noundef nonnull align 8 dereferenceable(48) %sq_free_factors, i32 noundef %14)
          to label %invoke.cont18 unwind label %lpad

invoke.cont18:                                    ; preds = %for.body17
  %15 = load ptr, ptr %factors.addr, align 8
  %16 = load i32, ptr %j, align 4
  %call21 = invoke noundef i32 @_ZNK11upolynomial12core_manager7factors10get_degreeEj(ptr noundef nonnull align 8 dereferenceable(48) %15, i32 noundef %16)
          to label %invoke.cont20 unwind label %lpad

invoke.cont20:                                    ; preds = %invoke.cont18
  %mul = mul i32 %call19, %call21
  invoke void @_ZN11upolynomial12core_manager7factors10set_degreeEjj(ptr noundef nonnull align 8 dereferenceable(48) %12, i32 noundef %13, i32 noundef %mul)
          to label %invoke.cont22 unwind label %lpad

invoke.cont22:                                    ; preds = %invoke.cont20
  br label %for.inc

for.inc:                                          ; preds = %invoke.cont22
  %17 = load i32, ptr %j, align 4
  %inc = add i32 %17, 1
  store i32 %inc, ptr %j, align 4
  br label %for.cond13, !llvm.loop !9

lpad:                                             ; preds = %invoke.cont33, %invoke.cont31, %for.end30, %invoke.cont25, %invoke.cont23, %if.else, %invoke.cont20, %invoke.cont18, %for.body17, %for.cond13, %invoke.cont9, %if.then, %invoke.cont4, %invoke.cont2, %for.body, %for.cond, %entry
  %18 = landingpad { ptr, i32 }
          cleanup
  %19 = extractvalue { ptr, i32 } %18, 0
  store ptr %19, ptr %exn.slot, align 8
  %20 = extractvalue { ptr, i32 } %18, 1
  store i32 %20, ptr %ehselector.slot, align 4
  call void @_ZN11upolynomial12core_manager7factorsD1Ev(ptr noundef nonnull align 8 dereferenceable(48) %sq_free_factors) #3
  br label %eh.resume

for.end:                                          ; preds = %invoke.cont14
  br label %if.end

if.else:                                          ; preds = %invoke.cont6
  %21 = load ptr, ptr %factors.addr, align 8
  %22 = load i32, ptr %i, align 4
  %call24 = invoke noundef nonnull align 8 dereferenceable(8) ptr @_ZNK11upolynomial12core_manager7factorsixEj(ptr noundef nonnull align 8 dereferenceable(48) %sq_free_factors, i32 noundef %22)
          to label %invoke.cont23 unwind label %lpad

invoke.cont23:                                    ; preds = %if.else
  %23 = load i32, ptr %i, align 4
  %call26 = invoke noundef i32 @_ZNK11upolynomial12core_manager7factors10get_degreeEj(ptr noundef nonnull align 8 dereferenceable(48) %sq_free_factors, i32 noundef %23)
          to label %invoke.cont25 unwind label %lpad

invoke.cont25:                                    ; preds = %invoke.cont23
  invoke void @_ZN11upolynomial12core_manager7factors9push_backERK7svectorI3mpzjEj(ptr noundef nonnull align 8 dereferenceable(48) %21, ptr noundef nonnull align 8 dereferenceable(8) %call24, i32 noundef %call26)
          to label %invoke.cont27 unwind label %lpad

invoke.cont27:                                    ; preds = %invoke.cont25
  br label %if.end

if.end:                                           ; preds = %invoke.cont27, %for.end
  br label %for.inc28

for.inc28:                                        ; preds = %if.end
  %24 = load i32, ptr %i, align 4
  %inc29 = add i32 %24, 1
  store i32 %inc29, ptr %i, align 4
  br label %for.cond, !llvm.loop !10

for.end30:                                        ; preds = %invoke.cont1
  %25 = load ptr, ptr %factors.addr, align 8
  %call32 = invoke noundef nonnull align 8 dereferenceable(16) ptr @_ZNK11upolynomial12core_manager7factors12get_constantEv(ptr noundef nonnull align 8 dereferenceable(48) %sq_free_factors)
          to label %invoke.cont31 unwind label %lpad

invoke.cont31:                                    ; preds = %for.end30
  invoke void @_ZN11upolynomial12core_manager7factors12set_constantERK3mpz(ptr noundef nonnull align 8 dereferenceable(48) %25, ptr noundef nonnull align 8 dereferenceable(16) %call32)
          to label %invoke.cont33 unwind label %lpad

invoke.cont33:                                    ; preds = %invoke.cont31
  %26 = load ptr, ptr %factors.addr, align 8
  %call35 = invoke noundef i32 @_ZNK11upolynomial12core_manager7factors13total_factorsEv(ptr noundef nonnull align 8 dereferenceable(48) %26)
          to label %invoke.cont34 unwind label %lpad

invoke.cont34:                                    ; preds = %invoke.cont33
  %cmp36 = icmp ugt i32 %call35, 1
  call void @_ZN11upolynomial12core_manager7factorsD1Ev(ptr noundef nonnull align 8 dereferenceable(48) %sq_free_factors) #3
  ret i1 %cmp36

eh.resume:                                        ; preds = %lpad
  %exn = load ptr, ptr %exn.slot, align 8
  %sel = load i32, ptr %ehselector.slot, align 4
  %lpad.val = insertvalue { ptr, i32 } poison, ptr %exn, 0
  %lpad.val37 = insertvalue { ptr, i32 } %lpad.val, i32 %sel, 1
  resume { ptr, i32 } %lpad.val37
}