; Function Attrs: mustprogress uwtable
define hidden noundef zeroext i1 @_ZN11upolynomial9zp_factorERNS_12core_managerERK7svectorI3mpzjERNS0_7factorsE(ptr noundef nonnull align 8 dereferenceable(272) %upm, ptr nocapture noundef nonnull readonly align 8 dereferenceable(8) %f, ptr noundef nonnull align 8 dereferenceable(48) %factors) local_unnamed_addr #3 personality ptr @__gxx_personality_v0 {
entry:
  %sq_free_factors = alloca %"class.upolynomial::core_manager::factors", align 8
  call void @_ZN11upolynomial12core_manager7factorsC1ERS0_(ptr noundef nonnull align 8 dereferenceable(48) %sq_free_factors, ptr noundef nonnull align 8 dereferenceable(272) %upm)
  invoke void @_ZN11upolynomial21zp_square_free_factorERNS_12core_managerERK7svectorI3mpzjERNS0_7factorsE(ptr noundef nonnull align 8 dereferenceable(272) %upm, ptr noundef nonnull align 8 dereferenceable(8) %f, ptr noundef nonnull align 8 dereferenceable(48) %sq_free_factors)
          to label %for.cond.preheader unwind label %lpad.loopexit.split-lp.loopexit.split-lp

for.cond.preheader:                               ; preds = %entry
  %m_degrees.i45 = getelementptr inbounds i8, ptr %sq_free_factors, i64 8
  %m_degrees.i40 = getelementptr inbounds i8, ptr %factors, i64 8
  br label %for.cond

for.cond:                                         ; preds = %for.cond.preheader, %for.inc28
  %indvars.iv54 = phi i64 [ 0, %for.cond.preheader ], [ %indvars.iv.next55, %for.inc28 ]
  %0 = load ptr, ptr %sq_free_factors, align 8
  %cmp.i.i = icmp eq ptr %0, null
  br i1 %cmp.i.i, label %invoke.cont1, label %if.end.i.i

if.end.i.i:                                       ; preds = %for.cond
  %arrayidx.i.i = getelementptr inbounds i8, ptr %0, i64 -4
  %1 = load i32, ptr %arrayidx.i.i, align 4
  br label %invoke.cont1

invoke.cont1:                                     ; preds = %if.end.i.i, %for.cond
  %retval.0.i.i = phi i32 [ %1, %if.end.i.i ], [ 0, %for.cond ]
  %2 = zext i32 %retval.0.i.i to i64
  %cmp = icmp ult i64 %indvars.iv54, %2
  br i1 %cmp, label %for.body, label %for.end30

for.body:                                         ; preds = %invoke.cont1
  %3 = load ptr, ptr %factors, align 8
  %cmp.i.i20 = icmp eq ptr %3, null
  br i1 %cmp.i.i20, label %invoke.cont4, label %if.end.i.i21

if.end.i.i21:                                     ; preds = %for.body
  %arrayidx.i.i22 = getelementptr inbounds i8, ptr %3, i64 -4
  %4 = load i32, ptr %arrayidx.i.i22, align 4
  br label %invoke.cont4

invoke.cont4:                                     ; preds = %for.body, %if.end.i.i21
  %retval.0.i.i23 = phi i32 [ %4, %if.end.i.i21 ], [ 0, %for.body ]
  %arrayidx.i.i25 = getelementptr inbounds %class.svector, ptr %0, i64 %indvars.iv54
  %5 = load ptr, ptr %arrayidx.i.i25, align 8
  %cmp.i.i26 = icmp eq ptr %5, null
  br i1 %cmp.i.i26, label %invoke.cont25, label %invoke.cont6

invoke.cont6:                                     ; preds = %invoke.cont4
  %arrayidx.i.i28 = getelementptr inbounds i8, ptr %5, i64 -4
  %6 = load i32, ptr %arrayidx.i.i28, align 4
  %cmp8 = icmp ugt i32 %6, 2
  br i1 %cmp8, label %invoke.cont9, label %invoke.cont25

invoke.cont9:                                     ; preds = %invoke.cont6
  %call.i32 = invoke noundef zeroext i1 @_ZN11upolynomial31zp_factor_square_free_berlekampERNS_12core_managerERK7svectorI3mpzjERNS0_7factorsEb(ptr noundef nonnull align 8 dereferenceable(272) %upm, ptr noundef nonnull align 8 dereferenceable(8) %arrayidx.i.i25, ptr noundef nonnull align 8 dereferenceable(48) %factors, i1 zeroext poison)
          to label %for.cond13.preheader unwind label %lpad.loopexit.split-lp.loopexit

for.cond13.preheader:                             ; preds = %invoke.cont9
  %7 = zext i32 %retval.0.i.i23 to i64
  br label %for.cond13

for.cond13:                                       ; preds = %for.cond13.preheader, %for.inc
  %indvars.iv = phi i64 [ %7, %for.cond13.preheader ], [ %indvars.iv.next, %for.inc ]
  %8 = load ptr, ptr %factors, align 8
  %cmp.i.i33 = icmp eq ptr %8, null
  br i1 %cmp.i.i33, label %invoke.cont14, label %if.end.i.i34

if.end.i.i34:                                     ; preds = %for.cond13
  %arrayidx.i.i35 = getelementptr inbounds i8, ptr %8, i64 -4
  %9 = load i32, ptr %arrayidx.i.i35, align 4
  br label %invoke.cont14

invoke.cont14:                                    ; preds = %if.end.i.i34, %for.cond13
  %retval.0.i.i36 = phi i32 [ %9, %if.end.i.i34 ], [ 0, %for.cond13 ]
  %10 = zext i32 %retval.0.i.i36 to i64
  %cmp16 = icmp ult i64 %indvars.iv, %10
  br i1 %cmp16, label %invoke.cont20, label %for.inc28

invoke.cont20:                                    ; preds = %invoke.cont14
  %11 = load ptr, ptr %m_degrees.i45, align 8
  %arrayidx.i.i39 = getelementptr inbounds i32, ptr %11, i64 %indvars.iv54
  %12 = load i32, ptr %arrayidx.i.i39, align 4
  %13 = load ptr, ptr %m_degrees.i40, align 8
  %arrayidx.i.i42 = getelementptr inbounds i32, ptr %13, i64 %indvars.iv
  %14 = load i32, ptr %arrayidx.i.i42, align 4
  %mul = mul i32 %14, %12
  %15 = trunc i64 %indvars.iv to i32
  invoke void @_ZN11upolynomial12core_manager7factors10set_degreeEjj(ptr noundef nonnull align 8 dereferenceable(48) %factors, i32 noundef %15, i32 noundef %mul)
          to label %for.inc unwind label %lpad.loopexit

for.inc:                                          ; preds = %invoke.cont20
  %indvars.iv.next = add nuw nsw i64 %indvars.iv, 1
  br label %for.cond13, !llvm.loop !9

lpad.loopexit:                                    ; preds = %invoke.cont20
  %lpad.loopexit48 = landingpad { ptr, i32 }
          cleanup
  br label %lpad

lpad.loopexit.split-lp.loopexit:                  ; preds = %invoke.cont9, %invoke.cont25
  %lpad.loopexit50 = landingpad { ptr, i32 }
          cleanup
  br label %lpad

lpad.loopexit.split-lp.loopexit.split-lp:         ; preds = %for.end30, %entry
  %lpad.loopexit.split-lp51 = landingpad { ptr, i32 }
          cleanup
  br label %lpad

lpad:                                             ; preds = %lpad.loopexit.split-lp.loopexit, %lpad.loopexit.split-lp.loopexit.split-lp, %lpad.loopexit
  %lpad.phi = phi { ptr, i32 } [ %lpad.loopexit48, %lpad.loopexit ], [ %lpad.loopexit50, %lpad.loopexit.split-lp.loopexit ], [ %lpad.loopexit.split-lp51, %lpad.loopexit.split-lp.loopexit.split-lp ]
  call void @_ZN11upolynomial12core_manager7factorsD1Ev(ptr noundef nonnull align 8 dereferenceable(48) %sq_free_factors) #16
  resume { ptr, i32 } %lpad.phi

invoke.cont25:                                    ; preds = %invoke.cont4, %invoke.cont6
  %16 = load ptr, ptr %m_degrees.i45, align 8
  %arrayidx.i.i47 = getelementptr inbounds i32, ptr %16, i64 %indvars.iv54
  %17 = load i32, ptr %arrayidx.i.i47, align 4
  invoke void @_ZN11upolynomial12core_manager7factors9push_backERK7svectorI3mpzjEj(ptr noundef nonnull align 8 dereferenceable(48) %factors, ptr noundef nonnull align 8 dereferenceable(8) %arrayidx.i.i25, i32 noundef %17)
          to label %for.inc28 unwind label %lpad.loopexit.split-lp.loopexit

for.inc28:                                        ; preds = %invoke.cont14, %invoke.cont25
  %indvars.iv.next55 = add nuw nsw i64 %indvars.iv54, 1
  br label %for.cond, !llvm.loop !10

for.end30:                                        ; preds = %invoke.cont1
  %m_constant.i = getelementptr inbounds i8, ptr %sq_free_factors, i64 24
  invoke void @_ZN11upolynomial12core_manager7factors12set_constantERK3mpz(ptr noundef nonnull align 8 dereferenceable(48) %factors, ptr noundef nonnull align 8 dereferenceable(16) %m_constant.i)
          to label %invoke.cont33 unwind label %lpad.loopexit.split-lp.loopexit.split-lp

invoke.cont33:                                    ; preds = %for.end30
  %m_total_factors.i = getelementptr inbounds i8, ptr %factors, i64 40
  %18 = load i32, ptr %m_total_factors.i, align 8
  %cmp36 = icmp ugt i32 %18, 1
  call void @_ZN11upolynomial12core_manager7factorsD1Ev(ptr noundef nonnull align 8 dereferenceable(48) %sq_free_factors) #16
  ret i1 %cmp36
}